target datalayout = "e-m:e-p270:32:32-p271:32:32-p272:64:64-i64:64-i128:128-f80:128-n8:16:32:64-S128"
target triple = "x86_64-unknown-linux-gnu"

%"struct.testing::(anonymous namespace)::NonNegative" = type { i32 }
%"class.testing::exceptions_internal::DefaultFactory.436" = type { %"struct.testing::(anonymous namespace)::HasReset" }
%"struct.testing::(anonymous namespace)::HasReset" = type { %"struct.testing::(anonymous namespace)::NonNegative" }
%"class.std::unique_ptr.465" = type { %"struct.std::__uniq_ptr_data.466" }
%"struct.std::__uniq_ptr_data.466" = type { %"class.std::__uniq_ptr_impl.467" }
%"class.std::__uniq_ptr_impl.467" = type { %"class.std::tuple.468" }
%"class.std::tuple.468" = type { %"struct.std::_Tuple_impl.469" }
%"struct.std::_Tuple_impl.469" = type { %"struct.std::_Head_base.472" }
%"struct.std::_Head_base.472" = type { ptr }

; Function Attrs: mustprogress nounwind uwtable
define internal noundef nonnull align 8 dereferenceable(8) ptr @_ZNSt10_Head_baseILm0EPN7testing12_GLOBAL__N_18HasResetELb0EE7_M_headERS4_(ptr noundef nonnull align 8 dereferenceable(8) %__b) #7 align 2 {
entry:
  %__b.addr = alloca ptr, align 8
  store ptr %__b, ptr %__b.addr, align 8
  %0 = load ptr, ptr %__b.addr, align 8
  %_M_head_impl = getelementptr inbounds %"struct.std::_Head_base.472", ptr %0, i32 0, i32 0
  ret ptr %_M_head_impl
}

; Function Attrs: mustprogress nounwind uwtable
define internal noundef nonnull align 8 dereferenceable(8) ptr @_ZNSt11_Tuple_implILm0EJPN7testing12_GLOBAL__N_18HasResetESt14default_deleteIS2_EEE7_M_headERS6_(ptr noundef nonnull align 8 dereferenceable(8) %__t) #7 align 2 {
entry:
  %__t.addr = alloca ptr, align 8
  store ptr %__t, ptr %__t.addr, align 8
  %0 = load ptr, ptr %__t.addr, align 8
  %call = call noundef nonnull align 8 dereferenceable(8) ptr @_ZNSt10_Head_baseILm0EPN7testing12_GLOBAL__N_18HasResetELb0EE7_M_headERS4_(ptr noundef nonnull align 8 dereferenceable(8) %0) #3
  ret ptr %call
}

; Function Attrs: mustprogress nounwind uwtable
define internal void @_ZNSt10_Head_baseILm1ESt14default_deleteIN7testing12_GLOBAL__N_18HasResetEELb1EEC2Ev(ptr noundef nonnull align 1 dereferenceable(1) %this) unnamed_addr #7 align 2 {
entry:
  %this.addr = alloca ptr, align 8
  store ptr %this, ptr %this.addr, align 8
  ret void
}

; Function Attrs: mustprogress nounwind uwtable
define internal noundef nonnull align 8 dereferenceable(8) ptr @_ZSt12__get_helperILm0EPN7testing12_GLOBAL__N_18HasResetEJSt14default_deleteIS2_EEERT0_RSt11_Tuple_implIXT_EJS6_DpT1_EE(ptr noundef nonnull align 8 dereferenceable(8) %__t) #7 {
entry:
  %__t.addr = alloca ptr, align 8
  store ptr %__t, ptr %__t.addr, align 8
  %0 = load ptr, ptr %__t.addr, align 8
  %call = call noundef nonnull align 8 dereferenceable(8) ptr @_ZNSt11_Tuple_implILm0EJPN7testing12_GLOBAL__N_18HasResetESt14default_deleteIS2_EEE7_M_headERS6_(ptr noundef nonnull align 8 dereferenceable(8) %0) #3
  ret ptr %call
}

; Function Attrs: mustprogress nounwind uwtable
define internal void @_ZNSt10_Head_baseILm0EPN7testing12_GLOBAL__N_18HasResetELb0EEC2Ev(ptr noundef nonnull align 8 dereferenceable(8) %this) unnamed_addr #7 align 2 {
entry:
  %this.addr = alloca ptr, align 8
  store ptr %this, ptr %this.addr, align 8
  %this1 = load ptr, ptr %this.addr, align 8
  %_M_head_impl = getelementptr inbounds %"struct.std::_Head_base.472", ptr %this1, i32 0, i32 0
  store ptr null, ptr %_M_head_impl, align 8
  ret void
}

; Function Attrs: mustprogress uwtable
define internal void @_ZNSt11_Tuple_implILm1EJSt14default_deleteIN7testing12_GLOBAL__N_18HasResetEEEEC2Ev(ptr noundef nonnull align 1 dereferenceable(1) %this) unnamed_addr #4 align 2 {
entry:
  %this.addr = alloca ptr, align 8
  store ptr %this, ptr %this.addr, align 8
  %this1 = load ptr, ptr %this.addr, align 8
  call void @_ZNSt10_Head_baseILm1ESt14default_deleteIN7testing12_GLOBAL__N_18HasResetEELb1EEC2Ev(ptr noundef nonnull align 1 dereferenceable(1) %this1)
  ret void
}

; Function Attrs: mustprogress nounwind uwtable
define internal noundef nonnull align 8 dereferenceable(8) ptr @_ZSt3getILm0EJPN7testing12_GLOBAL__N_18HasResetESt14default_deleteIS2_EEERNSt13tuple_elementIXT_ESt5tupleIJDpT0_EEE4typeERSA_(ptr noundef nonnull align 8 dereferenceable(8) %__t) #7 {
entry:
  %__t.addr = alloca ptr, align 8
  store ptr %__t, ptr %__t.addr, align 8
  %0 = load ptr, ptr %__t.addr, align 8
  %call = call noundef nonnull align 8 dereferenceable(8) ptr @_ZSt12__get_helperILm0EPN7testing12_GLOBAL__N_18HasResetEJSt14default_deleteIS2_EEERT0_RSt11_Tuple_implIXT_EJS6_DpT1_EE(ptr noundef nonnull align 8 dereferenceable(8) %0) #3
  ret ptr %call
}

; Function Attrs: mustprogress uwtable
define internal void @_ZNSt11_Tuple_implILm0EJPN7testing12_GLOBAL__N_18HasResetESt14default_deleteIS2_EEEC2Ev(ptr noundef nonnull align 8 dereferenceable(8) %this) unnamed_addr #4 align 2 {
entry:
  %this.addr = alloca ptr, align 8
  store ptr %this, ptr %this.addr, align 8
  %this1 = load ptr, ptr %this.addr, align 8
  call void @_ZNSt11_Tuple_implILm1EJSt14default_deleteIN7testing12_GLOBAL__N_18HasResetEEEEC2Ev(ptr noundef nonnull align 1 dereferenceable(1) %this1)
  call void @_ZNSt10_Head_baseILm0EPN7testing12_GLOBAL__N_18HasResetELb0EEC2Ev(ptr noundef nonnull align 8 dereferenceable(8) %this1)
  ret void
}

; Function Attrs: mustprogress nounwind uwtable
define internal noundef nonnull align 8 dereferenceable(8) ptr @_ZNSt15__uniq_ptr_implIN7testing12_GLOBAL__N_18HasResetESt14default_deleteIS2_EE6_M_ptrEv(ptr noundef nonnull align 8 dereferenceable(8) %this) #7 align 2 {
entry:
  %this.addr = alloca ptr, align 8
  store ptr %this, ptr %this.addr, align 8
  %this1 = load ptr, ptr %this.addr, align 8
  %_M_t = getelementptr inbounds %"class.std::__uniq_ptr_impl.467", ptr %this1, i32 0, i32 0
  %call = call noundef nonnull align 8 dereferenceable(8) ptr @_ZSt3getILm0EJPN7testing12_GLOBAL__N_18HasResetESt14default_deleteIS2_EEERNSt13tuple_elementIXT_ESt5tupleIJDpT0_EEE4typeERSA_(ptr noundef nonnull align 8 dereferenceable(8) %_M_t) #3
  ret ptr %call
}

; Function Attrs: mustprogress nounwind uwtable
define internal void @_ZNSt5tupleIJPN7testing12_GLOBAL__N_18HasResetESt14default_deleteIS2_EEEC2ILb1ETnNSt9enable_ifIXclsr17_TupleConstraintsIXT_ES3_S5_EE37__is_implicitly_default_constructibleEEbE4typeELb1EEEv(ptr noundef nonnull align 8 dereferenceable(8) %this) unnamed_addr #7 align 2 personality ptr @__gxx_personality_v0 {
entry:
  %this.addr = alloca ptr, align 8
  store ptr %this, ptr %this.addr, align 8
  %this1 = load ptr, ptr %this.addr, align 8
  invoke void @_ZNSt11_Tuple_implILm0EJPN7testing12_GLOBAL__N_18HasResetESt14default_deleteIS2_EEEC2Ev(ptr noundef nonnull align 8 dereferenceable(8) %this1)
          to label %invoke.cont unwind label %terminate.lpad

invoke.cont:                                      ; preds = %entry
  ret void

terminate.lpad:                                   ; preds = %entry
  %0 = landingpad { ptr, i32 }
          catch ptr null
  %1 = extractvalue { ptr, i32 } %0, 0
  call void @__clang_call_terminate(ptr %1) #19
  unreachable
}

; Function Attrs: mustprogress nounwind uwtable
define internal void @_ZNSt15__uniq_ptr_implIN7testing12_GLOBAL__N_18HasResetESt14default_deleteIS2_EEC2EPS2_(ptr noundef nonnull align 8 dereferenceable(8) %this, ptr noundef %__p) unnamed_addr #7 align 2 {
entry:
  %this.addr = alloca ptr, align 8
  %__p.addr = alloca ptr, align 8
  store ptr %this, ptr %this.addr, align 8
  store ptr %__p, ptr %__p.addr, align 8
  %this1 = load ptr, ptr %this.addr, align 8
  %_M_t = getelementptr inbounds %"class.std::__uniq_ptr_impl.467", ptr %this1, i32 0, i32 0
  call void @_ZNSt5tupleIJPN7testing12_GLOBAL__N_18HasResetESt14default_deleteIS2_EEEC2ILb1ETnNSt9enable_ifIXclsr17_TupleConstraintsIXT_ES3_S5_EE37__is_implicitly_default_constructibleEEbE4typeELb1EEEv(ptr noundef nonnull align 8 dereferenceable(8) %_M_t) #3
  %0 = load ptr, ptr %__p.addr, align 8
  %call = call noundef nonnull align 8 dereferenceable(8) ptr @_ZNSt15__uniq_ptr_implIN7testing12_GLOBAL__N_18HasResetESt14default_deleteIS2_EE6_M_ptrEv(ptr noundef nonnull align 8 dereferenceable(8) %this1) #3
  store ptr %0, ptr %call, align 8
  ret void
}

; Function Attrs: noreturn nounwind uwtable
define linkonce_odr hidden void @__clang_call_terminate(ptr noundef %0) #11 comdat {
  %2 = call ptr @__cxa_begin_catch(ptr %0) #3
  call void @_ZSt9terminatev() #19
  unreachable
}

; Function Attrs: mustprogress uwtable
define internal void @_ZNSt15__uniq_ptr_dataIN7testing12_GLOBAL__N_18HasResetESt14default_deleteIS2_ELb1ELb1EECI2St15__uniq_ptr_implIS2_S4_EEPS2_(ptr noundef nonnull align 8 dereferenceable(8) %this, ptr noundef %0) unnamed_addr #4 align 2 {
entry:
  %this.addr = alloca ptr, align 8
  %.addr = alloca ptr, align 8
  store ptr %this, ptr %this.addr, align 8
  store ptr %0, ptr %.addr, align 8
  %this1 = load ptr, ptr %this.addr, align 8
  %1 = load ptr, ptr %.addr, align 8
  call void @_ZNSt15__uniq_ptr_implIN7testing12_GLOBAL__N_18HasResetESt14default_deleteIS2_EEC2EPS2_(ptr noundef nonnull align 8 dereferenceable(8) %this1, ptr noundef %1)
  ret void
}

; Function Attrs: mustprogress nounwind uwtable
define internal void @_ZNSt10unique_ptrIN7testing12_GLOBAL__N_18HasResetESt14default_deleteIS2_EEC2IS4_vEEPS2_(ptr noundef nonnull align 8 dereferenceable(8) %this, ptr noundef %__p) unnamed_addr #7 align 2 personality ptr @__gxx_personality_v0 {
entry:
  %this.addr = alloca ptr, align 8
  %__p.addr = alloca ptr, align 8
  store ptr %this, ptr %this.addr, align 8
  store ptr %__p, ptr %__p.addr, align 8
  %this1 = load ptr, ptr %this.addr, align 8
  %_M_t = getelementptr inbounds %"class.std::unique_ptr.465", ptr %this1, i32 0, i32 0
  %0 = load ptr, ptr %__p.addr, align 8
  invoke void @_ZNSt15__uniq_ptr_dataIN7testing12_GLOBAL__N_18HasResetESt14default_deleteIS2_ELb1ELb1EECI2St15__uniq_ptr_implIS2_S4_EEPS2_(ptr noundef nonnull align 8 dereferenceable(8) %_M_t, ptr noundef %0)
          to label %invoke.cont unwind label %terminate.lpad

invoke.cont:                                      ; preds = %entry
  ret void

terminate.lpad:                                   ; preds = %entry
  %1 = landingpad { ptr, i32 }
          catch ptr null
  %2 = extractvalue { ptr, i32 } %1, 0
  call void @__clang_call_terminate(ptr %2) #19
  unreachable
}

; Function Attrs: mustprogress uwtable
define internal void @_ZSt11make_uniqueIN7testing12_GLOBAL__N_18HasResetEJRKS2_EENSt8__detail9_MakeUniqIT_E15__single_objectEDpOT0_(ptr noalias sret(%"class.std::unique_ptr.465") align 8 %agg.result, ptr noundef nonnull align 4 dereferenceable(4) %__args) #4 {
entry:
  %result.ptr = alloca ptr, align 8
  %__args.addr = alloca ptr, align 8
  store ptr %agg.result, ptr %result.ptr, align 8
  store ptr %__args, ptr %__args.addr, align 8
  %call = call noalias noundef nonnull ptr @_Znwm(i64 noundef 4) #16
  %0 = load ptr, ptr %__args.addr, align 8
  call void @llvm.memcpy.p0.p0.i64(ptr align 4 %call, ptr align 4 %0, i64 4, i1 false)
  call void @_ZNSt10unique_ptrIN7testing12_GLOBAL__N_18HasResetESt14default_deleteIS2_EEC2IS4_vEEPS2_(ptr noundef nonnull align 8 dereferenceable(8) %agg.result, ptr noundef %call) #3
  ret void
}

; Function Attrs: mustprogress uwtable
define internal void @_ZNK7testing19exceptions_internal14DefaultFactoryINS_12_GLOBAL__N_18HasResetEEclEv(ptr noalias sret(%"class.std::unique_ptr.465") align 8 %agg.result, ptr noundef nonnull align 4 dereferenceable(4) %this) #4 align 2 {
entry:
  %result.ptr = alloca ptr, align 8
  %this.addr = alloca ptr, align 8
  store ptr %agg.result, ptr %result.ptr, align 8
  store ptr %this, ptr %this.addr, align 8
  %this1 = load ptr, ptr %this.addr, align 8
  %t_ = getelementptr inbounds %"class.testing::exceptions_internal::DefaultFactory.436", ptr %this1, i32 0, i32 0
  call void @_ZSt11make_uniqueIN7testing12_GLOBAL__N_18HasResetEJRKS2_EENSt8__detail9_MakeUniqIT_E15__single_objectEDpOT0_(ptr sret(%"class.std::unique_ptr.465") align 8 %agg.result, ptr noundef nonnull align 4 dereferenceable(4) %t_)
  ret void
}

; Function Attrs: mustprogress nounwind uwtable
define linkonce_odr dso_local noundef ptr @_ZNKSt9_Any_data9_M_accessEv(ptr noundef nonnull align 8 dereferenceable(16) %this) #7 comdat align 2 {
entry:
  %this.addr = alloca ptr, align 8
  store ptr %this, ptr %this.addr, align 8
  %this1 = load ptr, ptr %this.addr, align 8
  %arrayidx = getelementptr inbounds [16 x i8], ptr %this1, i64 0, i64 0
  ret ptr %arrayidx
}

; Function Attrs: mustprogress uwtable
define internal void @_ZSt13__invoke_implISt10unique_ptrIN7testing12_GLOBAL__N_18HasResetESt14default_deleteIS3_EERNS1_19exceptions_internal14DefaultFactoryIS3_EEJEET_St14__invoke_otherOT0_DpOT1_(ptr noalias sret(%"class.std::unique_ptr.465") align 8 %agg.result, ptr noundef nonnull align 4 dereferenceable(4) %__f) #4 {
entry:
  %result.ptr = alloca ptr, align 8
  %__f.addr = alloca ptr, align 8
  store ptr %agg.result, ptr %result.ptr, align 8
  store ptr %__f, ptr %__f.addr, align 8
  %0 = load ptr, ptr %__f.addr, align 8
  call void @_ZNK7testing19exceptions_internal14DefaultFactoryINS_12_GLOBAL__N_18HasResetEEclEv(ptr sret(%"class.std::unique_ptr.465") align 8 %agg.result, ptr noundef nonnull align 4 dereferenceable(4) %0)
  ret void
}

; Function Attrs: mustprogress nounwind uwtable
define internal noundef nonnull align 4 dereferenceable(4) ptr @_ZNKSt9_Any_data9_M_accessIN7testing19exceptions_internal14DefaultFactoryINS1_12_GLOBAL__N_18HasResetEEEEERKT_v(ptr noundef nonnull align 8 dereferenceable(16) %this) #7 align 2 {
entry:
  %this.addr = alloca ptr, align 8
  store ptr %this, ptr %this.addr, align 8
  %this1 = load ptr, ptr %this.addr, align 8
  %call = call noundef ptr @_ZNKSt9_Any_data9_M_accessEv(ptr noundef nonnull align 8 dereferenceable(16) %this1) #3
  ret ptr %call
}

; Function Attrs: mustprogress uwtable
define internal void @_ZSt10__invoke_rISt10unique_ptrIN7testing12_GLOBAL__N_18HasResetESt14default_deleteIS3_EERNS1_19exceptions_internal14DefaultFactoryIS3_EEJEENSt9enable_ifIX16is_invocable_r_vIT_T0_DpT1_EESC_E4typeEOSD_DpOSE_(ptr noalias sret(%"class.std::unique_ptr.465") align 8 %agg.result, ptr noundef nonnull align 4 dereferenceable(4) %__fn) #4 {
entry:
  %result.ptr = alloca ptr, align 8
  %__fn.addr = alloca ptr, align 8
  store ptr %agg.result, ptr %result.ptr, align 8
  store ptr %__fn, ptr %__fn.addr, align 8
  %0 = load ptr, ptr %__fn.addr, align 8
  call void @_ZSt13__invoke_implISt10unique_ptrIN7testing12_GLOBAL__N_18HasResetESt14default_deleteIS3_EERNS1_19exceptions_internal14DefaultFactoryIS3_EEJEET_St14__invoke_otherOT0_DpOT1_(ptr sret(%"class.std::unique_ptr.465") align 8 %agg.result, ptr noundef nonnull align 4 dereferenceable(4) %0)
  ret void
}

; Function Attrs: mustprogress nounwind uwtable
define internal noundef ptr @_ZNSt14_Function_base13_Base_managerIN7testing19exceptions_internal14DefaultFactoryINS1_12_GLOBAL__N_18HasResetEEEE14_M_get_pointerERKSt9_Any_data(ptr noundef nonnull align 8 dereferenceable(16) %__source) #7 align 2 {
entry:
  %__source.addr = alloca ptr, align 8
  %__f = alloca ptr, align 8
  store ptr %__source, ptr %__source.addr, align 8
  %0 = load ptr, ptr %__source.addr, align 8
  %call = call noundef nonnull align 4 dereferenceable(4) ptr @_ZNKSt9_Any_data9_M_accessIN7testing19exceptions_internal14DefaultFactoryINS1_12_GLOBAL__N_18HasResetEEEEERKT_v(ptr noundef nonnull align 8 dereferenceable(16) %0) #3
  store ptr %call, ptr %__f, align 8
  %1 = load ptr, ptr %__f, align 8
  ret ptr %1
}

; Function Attrs: mustprogress uwtable
define internal void @_ZNSt17_Function_handlerIFSt10unique_ptrIN7testing12_GLOBAL__N_18HasResetESt14default_deleteIS3_EEvENS1_19exceptions_internal14DefaultFactoryIS3_EEE9_M_invokeERKSt9_Any_data(ptr noalias sret(%"class.std::unique_ptr.465") align 8 %agg.result, ptr noundef nonnull align 8 dereferenceable(16) %__functor) #4 align 2 {
entry:
  %result.ptr = alloca ptr, align 8
  %__functor.addr = alloca ptr, align 8
  store ptr %agg.result, ptr %result.ptr, align 8
  store ptr %__functor, ptr %__functor.addr, align 8
  %0 = load ptr, ptr %__functor.addr, align 8
  %call = call noundef ptr @_ZNSt14_Function_base13_Base_managerIN7testing19exceptions_internal14DefaultFactoryINS1_12_GLOBAL__N_18HasResetEEEE14_M_get_pointerERKSt9_Any_data(ptr noundef nonnull align 8 dereferenceable(16) %0) #3
  call void @_ZSt10__invoke_rISt10unique_ptrIN7testing12_GLOBAL__N_18HasResetESt14default_deleteIS3_EERNS1_19exceptions_internal14DefaultFactoryIS3_EEJEENSt9enable_ifIX16is_invocable_r_vIT_T0_DpT1_EESC_E4typeEOSD_DpOSE_(ptr sret(%"class.std::unique_ptr.465") align 8 %agg.result, ptr noundef nonnull align 4 dereferenceable(4) %call)
  ret void
}